target datalayout = "e-m:e-p270:32:32-p271:32:32-p272:64:64-i64:64-i128:128-f80:128-n8:16:32:64-S128"
target triple = "x86_64-pc-linux-gnu"

%struct.VuDev = type { i32, i32, ptr, ptr, %struct.VuDevInflightInfo, i32, %union.pthread_mutex_t, i32, i64, ptr, i64, i64, i8, i16, ptr, ptr, ptr, ptr, ptr, i32, i8 }
%struct.VuDevInflightInfo = type { i32, ptr, i64 }
%union.pthread_mutex_t = type { %struct.__pthread_mutex_s }
%struct.__pthread_mutex_s = type { i32, i32, i32, i32, i32, i16, i16, %struct.__pthread_internal_list }
%struct.__pthread_internal_list = type { ptr, ptr }
%struct.VhostUserMsg = type <{ i32, i32, i32, %union.anon, [8 x i32], i32, ptr }>
%union.anon = type { %struct.VhostUserMemory, [8 x i8] }
%struct.VhostUserMemory = type { i32, i32, [8 x %struct.VhostUserMemoryRegion] }
%struct.VhostUserMemoryRegion = type { i64, i64, i64, i64 }

@.str.74 = private unnamed_addr constant [23 x i8] c"Invalid log_fd message\00", align 1

; Function Attrs: nounwind uwtable
define internal zeroext i1 @vu_set_log_fd_exec(ptr noundef %0, ptr noundef %1) #0 {
  %3 = alloca i1, align 1
  %4 = alloca ptr, align 8
  %5 = alloca ptr, align 8
  store ptr %0, ptr %4, align 8
  store ptr %1, ptr %5, align 8
  %6 = load ptr, ptr %5, align 8
  %7 = getelementptr inbounds nuw %struct.VhostUserMsg, ptr %6, i32 0, i32 5
  %8 = load i32, ptr %7, align 1
  %9 = icmp ne i32 %8, 1
  br i1 %9, label %10, label %12

10:                                               ; preds = %2
  %11 = load ptr, ptr %4, align 8
  call void (ptr, ptr, ...) @vu_panic(ptr noundef %11, ptr noundef @.str.74)
  store i1 false, ptr %3, align 1
  br label %31

12:                                               ; preds = %2
  %13 = load ptr, ptr %4, align 8
  %14 = getelementptr inbounds nuw %struct.VuDev, ptr %13, i32 0, i32 5
  %15 = load i32, ptr %14, align 8
  %16 = icmp ne i32 %15, -1
  br i1 %16, label %17, label %22

17:                                               ; preds = %12
  %18 = load ptr, ptr %4, align 8
  %19 = getelementptr inbounds nuw %struct.VuDev, ptr %18, i32 0, i32 5
  %20 = load i32, ptr %19, align 8
  %21 = call i32 @close(i32 noundef %20)
  br label %22

22:                                               ; preds = %17, %12
  %23 = load ptr, ptr %5, align 8
  %24 = getelementptr inbounds nuw %struct.VhostUserMsg, ptr %23, i32 0, i32 4
  %25 = getelementptr inbounds [8 x i32], ptr %24, i64 0, i64 0
  %26 = load i32, ptr %25, align 1
  %27 = load ptr, ptr %4, align 8
  %28 = getelementptr inbounds nuw %struct.VuDev, ptr %27, i32 0, i32 5
  store i32 %26, ptr %28, align 8
  br label %29

29:                                               ; preds = %22
  br label %30

30:                                               ; preds = %29
  store i1 false, ptr %3, align 1
  br label %31

31:                                               ; preds = %30, %10
  %32 = load i1, ptr %3, align 1
  ret i1 %32
}